; Function Attrs: nounwind uwtable
define double @N_VWrmsNorm_Serial(ptr noundef readonly captures(none) %0, ptr noundef readonly captures(none) %1) #9 {
  %3 = load ptr, ptr %0, align 8, !tbaa !39
  %4 = load i64, ptr %3, align 8, !tbaa !32
  %5 = getelementptr inbounds nuw i8, ptr %3, i64 16
  %6 = load ptr, ptr %5, align 8, !tbaa !38
  %7 = load ptr, ptr %1, align 8, !tbaa !39
  %8 = getelementptr inbounds nuw i8, ptr %7, i64 16
  %9 = load ptr, ptr %8, align 8, !tbaa !38
  %10 = icmp sgt i64 %4, 0
  br i1 %10, label %.lr.ph, label %._crit_edge

.lr.ph:                                           ; preds = %2, %.lr.ph
  %.017 = phi i64 [ %17, %.lr.ph ], [ 0, %2 ]
  %.01416 = phi double [ %16, %.lr.ph ], [ 0.000000e+00, %2 ]
  %11 = getelementptr inbounds nuw double, ptr %6, i64 %.017
  %12 = load double, ptr %11, align 8, !tbaa !44
  %13 = getelementptr inbounds nuw double, ptr %9, i64 %.017
  %14 = load double, ptr %13, align 8, !tbaa !44
  %15 = fmul double %12, %14
  %16 = tail call double @llvm.fmuladd.f64(double %15, double %15, double %.01416)
  %17 = add nuw nsw i64 %.017, 1
  %exitcond.not = icmp eq i64 %17, %4
  br i1 %exitcond.not, label %._crit_edge, label %.lr.ph, !llvm.loop !70

._crit_edge:                                      ; preds = %.lr.ph, %2
  %.014.lcssa = phi double [ 0.000000e+00, %2 ], [ %16, %.lr.ph ]
  %18 = sitofp i64 %4 to double
  %19 = fdiv double %.014.lcssa, %18
  %20 = tail call double @SUNRsqrt(double noundef %19) #18
  ret double %20
}